; Function Attrs: nofree norecurse nosync nounwind memory(argmem: readwrite) uwtable
define internal void @vertical_compose53iL0_8bit(ptr noundef readonly captures(none) %0, ptr noundef captures(none) %1, ptr noundef readonly captures(none) %2, i32 noundef %3) #3 {
  %5 = icmp sgt i32 %3, 0
  br i1 %5, label %.lr.ph.preheader, label %._crit_edge

.lr.ph.preheader:                                 ; preds = %4
  %wide.trip.count = zext nneg i32 %3 to i64
  br label %.lr.ph

.lr.ph:                                           ; preds = %.lr.ph.preheader, %.lr.ph
  %indvars.iv = phi i64 [ 0, %.lr.ph.preheader ], [ %indvars.iv.next, %.lr.ph ]
  %6 = getelementptr inbounds nuw i16, ptr %0, i64 %indvars.iv
  %7 = load i16, ptr %6, align 2, !tbaa !39
  %8 = sext i16 %7 to i32
  %9 = getelementptr inbounds nuw i16, ptr %2, i64 %indvars.iv
  %10 = load i16, ptr %9, align 2, !tbaa !39
  %11 = sext i16 %10 to i32
  %12 = add nsw i32 %8, 2
  %13 = add nsw i32 %12, %11
  %14 = lshr i32 %13, 2
  %15 = getelementptr inbounds nuw i16, ptr %1, i64 %indvars.iv
  %16 = load i16, ptr %15, align 2, !tbaa !39
  %17 = trunc i32 %14 to i16
  %18 = sub i16 %16, %17
  store i16 %18, ptr %15, align 2, !tbaa !39
  %indvars.iv.next = add nuw nsw i64 %indvars.iv, 1
  %exitcond.not = icmp eq i64 %indvars.iv.next, %wide.trip.count
  br i1 %exitcond.not, label %._crit_edge, label %.lr.ph, !llvm.loop !41

._crit_edge:                                      ; preds = %.lr.ph, %4
  ret void
}